target datalayout = "e-m:e-p270:32:32-p271:32:32-p272:64:64-i64:64-i128:128-f80:128-n8:16:32:64-S128"
target triple = "x86_64-pc-linux-gnu"

%struct.lv_point_t = type { i32, i32 }

; Function Attrs: nounwind uwtable
define void @lv_obj_update_snap(ptr noundef %0, i32 noundef %1) #0 {
  %3 = alloca ptr, align 8
  %4 = alloca i32, align 4
  %5 = alloca %struct.lv_point_t, align 4
  store ptr %0, ptr %3, align 8, !tbaa !3
  store i32 %1, ptr %4, align 4, !tbaa !7
  %6 = load ptr, ptr %3, align 8, !tbaa !3
  call void @lv_obj_update_layout(ptr noundef %6)
  call void @llvm.lifetime.start.p0(i64 8, ptr %5) #5
  %7 = load ptr, ptr %3, align 8, !tbaa !3
  call void @lv_indev_scroll_get_snap_dist(ptr noundef %7, ptr noundef %5)
  %8 = getelementptr inbounds nuw %struct.lv_point_t, ptr %5, i32 0, i32 0
  %9 = load i32, ptr %8, align 4, !tbaa !31
  %10 = icmp eq i32 %9, 536870911
  br i1 %10, label %15, label %11

11:                                               ; preds = %2
  %12 = getelementptr inbounds nuw %struct.lv_point_t, ptr %5, i32 0, i32 0
  %13 = load i32, ptr %12, align 4, !tbaa !31
  %14 = icmp eq i32 %13, -536870911
  br i1 %14, label %15, label %17

15:                                               ; preds = %11, %2
  %16 = getelementptr inbounds nuw %struct.lv_point_t, ptr %5, i32 0, i32 0
  store i32 0, ptr %16, align 4, !tbaa !31
  br label %17

17:                                               ; preds = %15, %11
  %18 = getelementptr inbounds nuw %struct.lv_point_t, ptr %5, i32 0, i32 1
  %19 = load i32, ptr %18, align 4, !tbaa !32
  %20 = icmp eq i32 %19, 536870911
  br i1 %20, label %25, label %21

21:                                               ; preds = %17
  %22 = getelementptr inbounds nuw %struct.lv_point_t, ptr %5, i32 0, i32 1
  %23 = load i32, ptr %22, align 4, !tbaa !32
  %24 = icmp eq i32 %23, -536870911
  br i1 %24, label %25, label %27

25:                                               ; preds = %21, %17
  %26 = getelementptr inbounds nuw %struct.lv_point_t, ptr %5, i32 0, i32 1
  store i32 0, ptr %26, align 4, !tbaa !32
  br label %27

27:                                               ; preds = %25, %21
  %28 = load ptr, ptr %3, align 8, !tbaa !3
  %29 = getelementptr inbounds nuw %struct.lv_point_t, ptr %5, i32 0, i32 0
  %30 = load i32, ptr %29, align 4, !tbaa !31
  %31 = getelementptr inbounds nuw %struct.lv_point_t, ptr %5, i32 0, i32 1
  %32 = load i32, ptr %31, align 4, !tbaa !32
  %33 = load i32, ptr %4, align 4, !tbaa !7
  call void @lv_obj_scroll_by(ptr noundef %28, i32 noundef %30, i32 noundef %32, i32 noundef %33)
  call void @llvm.lifetime.end.p0(i64 8, ptr %5) #5
  ret void
}