; Function Attrs: nounwind uwtable
define void @lv_obj_update_snap(ptr noundef %0, i32 noundef %1) local_unnamed_addr #0 {
  %3 = alloca %struct.lv_point_t, align 4
  tail call void @lv_obj_update_layout(ptr noundef %0) #5
  call void @llvm.lifetime.start.p0(i64 8, ptr nonnull %3) #5
  call void @lv_indev_scroll_get_snap_dist(ptr noundef %0, ptr noundef nonnull %3) #5
  %4 = load i32, ptr %3, align 4
  switch i32 %4, label %6 [
    i32 -536870911, label %5
    i32 536870911, label %5
  ]

5:                                                ; preds = %2, %2
  store i32 0, ptr %3, align 4, !tbaa !29
  br label %6

6:                                                ; preds = %2, %5
  %7 = phi i32 [ %4, %2 ], [ 0, %5 ]
  %8 = getelementptr inbounds nuw i8, ptr %3, i64 4
  %9 = load i32, ptr %8, align 4
  switch i32 %9, label %11 [
    i32 -536870911, label %10
    i32 536870911, label %10
  ]

10:                                               ; preds = %6, %6
  store i32 0, ptr %8, align 4, !tbaa !30
  br label %11

11:                                               ; preds = %6, %10
  %12 = phi i32 [ %9, %6 ], [ 0, %10 ]
  call void @lv_obj_scroll_by(ptr noundef %0, i32 noundef %7, i32 noundef %12, i32 noundef %1)
  call void @llvm.lifetime.end.p0(i64 8, ptr nonnull %3) #5
  ret void
}